target datalayout = "e-m:e-p270:32:32-p271:32:32-p272:64:64-i64:64-i128:128-f80:128-n8:16:32:64-S128"
target triple = "x86_64-pc-linux-gnu"

@actarget = internal global ptr null, align 8
@targlen = internal global i32 0, align 4
@.str.8 = private unnamed_addr constant [6 x i8] c"%s/%s\00", align 1
@.str.9 = private unnamed_addr constant [11 x i8] c"%s/%s.%03u\00", align 1

; Function Attrs: nounwind uwtable
define internal i32 @getdest(ptr noundef %0, ptr noundef %1) #0 {
  %3 = alloca i32, align 4
  %4 = alloca ptr, align 8
  %5 = alloca ptr, align 8
  %6 = alloca ptr, align 8
  %7 = alloca ptr, align 8
  %8 = alloca i32, align 4
  %9 = alloca i32, align 4
  store ptr %0, ptr %4, align 8
  store ptr %1, ptr %5, align 8
  %10 = load ptr, ptr %4, align 8
  %11 = call noalias ptr @strdup(ptr noundef %10) #7
  store ptr %11, ptr %6, align 8
  %12 = load ptr, ptr %6, align 8
  %13 = icmp ne ptr %12, null
  br i1 %13, label %16, label %14

14:                                               ; preds = %2
  %15 = load ptr, ptr %5, align 8
  store ptr null, ptr %15, align 8
  store i32 -1, ptr %3, align 4
  br label %68

16:                                               ; preds = %2
  %17 = load ptr, ptr %6, align 8
  %18 = call ptr @__xpg_basename(ptr noundef %17) #7
  store ptr %18, ptr %7, align 8
  %19 = load i32, ptr @targlen, align 4
  %20 = sext i32 %19 to i64
  %21 = load ptr, ptr %7, align 8
  %22 = call i64 @strlen(ptr noundef %21) #6
  %23 = add i64 %20, %22
  %24 = add i64 %23, 6
  %25 = call noalias ptr @malloc(i64 noundef %24) #9
  %26 = load ptr, ptr %5, align 8
  store ptr %25, ptr %26, align 8
  %27 = icmp ne ptr %25, null
  br i1 %27, label %30, label %28

28:                                               ; preds = %16
  %29 = load ptr, ptr %6, align 8
  call void @free(ptr noundef %29) #7
  store i32 -1, ptr %3, align 4
  br label %68

30:                                               ; preds = %16
  %31 = load ptr, ptr %5, align 8
  %32 = load ptr, ptr %31, align 8
  %33 = load ptr, ptr @actarget, align 8
  %34 = load ptr, ptr %7, align 8
  %35 = call i32 (ptr, ptr, ...) @sprintf(ptr noundef %32, ptr noundef @.str.8, ptr noundef %33, ptr noundef %34) #7
  store i32 1, ptr %9, align 4
  br label %36

36:                                               ; preds = %60, %30
  %37 = load i32, ptr %9, align 4
  %38 = icmp slt i32 %37, 1000
  br i1 %38, label %39, label %63

39:                                               ; preds = %36
  %40 = load ptr, ptr %5, align 8
  %41 = load ptr, ptr %40, align 8
  %42 = call i32 (ptr, i32, ...) @open(ptr noundef %41, i32 noundef 193, i32 noundef 384)
  store i32 %42, ptr %8, align 4
  %43 = load i32, ptr %8, align 4
  %44 = icmp sge i32 %43, 0
  br i1 %44, label %45, label %48

45:                                               ; preds = %39
  %46 = load ptr, ptr %6, align 8
  call void @free(ptr noundef %46) #7
  %47 = load i32, ptr %8, align 4
  store i32 %47, ptr %3, align 4
  br label %68

48:                                               ; preds = %39
  %49 = call ptr @__errno_location() #8
  %50 = load i32, ptr %49, align 4
  %51 = icmp ne i32 %50, 17
  br i1 %51, label %52, label %53

52:                                               ; preds = %48
  br label %63

53:                                               ; preds = %48
  %54 = load ptr, ptr %5, align 8
  %55 = load ptr, ptr %54, align 8
  %56 = load ptr, ptr @actarget, align 8
  %57 = load ptr, ptr %7, align 8
  %58 = load i32, ptr %9, align 4
  %59 = call i32 (ptr, ptr, ...) @sprintf(ptr noundef %55, ptr noundef @.str.9, ptr noundef %56, ptr noundef %57, i32 noundef %58) #7
  br label %60

60:                                               ; preds = %53
  %61 = load i32, ptr %9, align 4
  %62 = add nsw i32 %61, 1
  store i32 %62, ptr %9, align 4
  br label %36

63:                                               ; preds = %52, %36
  %64 = load ptr, ptr %6, align 8
  call void @free(ptr noundef %64) #7
  %65 = load ptr, ptr %5, align 8
  %66 = load ptr, ptr %65, align 8
  call void @free(ptr noundef %66) #7
  %67 = load ptr, ptr %5, align 8
  store ptr null, ptr %67, align 8
  store i32 -1, ptr %3, align 4
  br label %68

68:                                               ; preds = %63, %45, %28, %14
  %69 = load i32, ptr %3, align 4
  ret i32 %69
}