; Function Attrs: nounwind uwtable
define internal fastcc noundef i32 @getdest(ptr nocapture noundef readonly %0, ptr nocapture noundef %1) unnamed_addr #0 {
  %3 = tail call noalias ptr @strdup(ptr noundef %0) #11
  %.not = icmp eq ptr %3, null
  br i1 %.not, label %4, label %5

4:                                                ; preds = %2
  store ptr null, ptr %1, align 8
  br label %32

5:                                                ; preds = %2
  %6 = tail call ptr @__xpg_basename(ptr noundef nonnull %3) #11
  %7 = load i32, ptr @targlen, align 4
  %8 = sext i32 %7 to i64
  %9 = tail call i64 @strlen(ptr noundef nonnull dereferenceable(1) %6) #12
  %10 = add nsw i64 %8, 6
  %11 = add i64 %10, %9
  %12 = tail call noalias ptr @malloc(i64 noundef %11) #14
  store ptr %12, ptr %1, align 8
  %.not25 = icmp eq ptr %12, null
  br i1 %.not25, label %13, label %14

13:                                               ; preds = %5
  tail call void @free(ptr noundef nonnull %3) #11
  br label %32

14:                                               ; preds = %5
  %15 = load ptr, ptr @actarget, align 8
  %16 = tail call i32 (ptr, ptr, ...) @sprintf(ptr noundef nonnull dereferenceable(1) %12, ptr noundef nonnull dereferenceable(1) @.str.8, ptr noundef %15, ptr noundef %6) #11
  br label %17

17:                                               ; preds = %14, %25
  %.027 = phi i32 [ 1, %14 ], [ %29, %25 ]
  %18 = load ptr, ptr %1, align 8
  %19 = tail call i32 (ptr, i32, ...) @open(ptr noundef %18, i32 noundef 193, i32 noundef 384) #11
  %20 = icmp sgt i32 %19, -1
  br i1 %20, label %21, label %22

21:                                               ; preds = %17
  tail call void @free(ptr noundef %3) #11
  br label %32

22:                                               ; preds = %17
  %23 = tail call ptr @__errno_location() #13
  %24 = load i32, ptr %23, align 4
  %.not26 = icmp eq i32 %24, 17
  br i1 %.not26, label %25, label %30

25:                                               ; preds = %22
  %26 = load ptr, ptr %1, align 8
  %27 = load ptr, ptr @actarget, align 8
  %28 = tail call i32 (ptr, ptr, ...) @sprintf(ptr noundef nonnull dereferenceable(1) %26, ptr noundef nonnull dereferenceable(1) @.str.9, ptr noundef %27, ptr noundef %6, i32 noundef %.027) #11
  %29 = add nuw nsw i32 %.027, 1
  %exitcond.not = icmp eq i32 %29, 1000
  br i1 %exitcond.not, label %30, label %17

30:                                               ; preds = %22, %25
  tail call void @free(ptr noundef %3) #11
  %31 = load ptr, ptr %1, align 8
  tail call void @free(ptr noundef %31) #11
  store ptr null, ptr %1, align 8
  br label %32

32:                                               ; preds = %30, %21, %13, %4
  %.021 = phi i32 [ %19, %21 ], [ -1, %30 ], [ -1, %13 ], [ -1, %4 ]
  ret i32 %.021
}